target datalayout = "e-m:e-p270:32:32-p271:32:32-p272:64:64-i64:64-i128:128-f80:128-n8:16:32:64-S128"
target triple = "x86_64-pc-linux-gnu"

@LZ4F_getErrorName.codeError = internal global ptr @.str, align 8

; Function Attrs: nounwind uwtable
define i32 @LZ4F_isError(i64 noundef %0) #0 {
  %2 = alloca i64, align 8
  store i64 %0, ptr %2, align 8, !tbaa !3
  %3 = load i64, ptr %2, align 8, !tbaa !3
  %4 = icmp ugt i64 %3, -24
  %5 = zext i1 %4 to i32
  ret i32 %5
}

; Function Attrs: nounwind uwtable
define ptr @LZ4F_getErrorName(i64 noundef %0) #0 {
  %2 = alloca ptr, align 8
  %3 = alloca i64, align 8
  store i64 %0, ptr %3, align 8, !tbaa !3
  %4 = load i64, ptr %3, align 8, !tbaa !3
  %5 = call i32 @LZ4F_isError(i64 noundef %4)
  %6 = icmp ne i32 %5, 0
  br i1 %6, label %7, label %14

7:                                                ; preds = %1
  %8 = load i64, ptr %3, align 8, !tbaa !3
  %9 = trunc i64 %8 to i32
  %10 = sub nsw i32 0, %9
  %11 = sext i32 %10 to i64
  %12 = getelementptr inbounds [25 x ptr], ptr @LZ4F_errorStrings, i64 0, i64 %11
  %13 = load ptr, ptr %12, align 8, !tbaa !7
  store ptr %13, ptr %2, align 8
  br label %16

14:                                               ; preds = %1
  %15 = load ptr, ptr @LZ4F_getErrorName.codeError, align 8, !tbaa !7
  store ptr %15, ptr %2, align 8
  br label %16

16:                                               ; preds = %14, %7
  %17 = load ptr, ptr %2, align 8
  ret ptr %17
}