; Function Attrs: mustprogress nofree norecurse nosync nounwind willreturn memory(none) uwtable
define ptr @LZ4F_getErrorName(i64 noundef %0) local_unnamed_addr #0 {
  %2 = icmp ult i64 %0, -23
  br i1 %2, label %7, label %3

3:                                                ; preds = %1
  %4 = sub nsw i64 0, %0
  %5 = getelementptr inbounds nuw [25 x ptr], ptr @LZ4F_errorStrings, i64 0, i64 %4
  %6 = load ptr, ptr %5, align 8, !tbaa !3
  br label %7

7:                                                ; preds = %1, %3
  %.0 = phi ptr [ %6, %3 ], [ @.str, %1 ]
  ret ptr %.0
}